target datalayout = "e-m:e-p270:32:32-p271:32:32-p272:64:64-i64:64-i128:128-f80:128-n8:16:32:64-S128"
target triple = "x86_64-pc-linux-gnu"

%"class.sat::literal" = type { i32 }
%"class.sat::model_converter" = type { %class.vector, i32, %class.svector, ptr, %class.svector.1 }
%class.vector = type { ptr }
%class.svector = type { %class.vector.0 }
%class.vector.0 = type { ptr }
%class.svector.1 = type { %class.vector.2 }
%class.vector.2 = type { ptr }
%class.svector.26 = type { %class.vector.27 }
%class.vector.27 = type { ptr }
%"class.sat::model_converter::entry" = type { i32, i32, %class.svector.26, %class.svector.26, %class.ref_vector_core }
%class.ref_vector_core = type { %class.ptr_vector.50 }
%class.ptr_vector.50 = type { %class.vector.51 }
%class.vector.51 = type { ptr }

@.str.2 = private unnamed_addr constant [115 x i8] c"generated/home/dtcxzyw/WorkSpace/Projects/compilers/llvm-opt-benchmark/bench/z3/z3/src/sat/sat_model_converter.cpp\00", align 1
@_ZN3sat12null_literalE = linkonce_odr hidden constant %"class.sat::literal" { i32 -2 }, comdat, align 4
@.str.15 = private unnamed_addr constant [59 x i8] c"Failed to verify: l == null_literal || l.var() < num_vars\0A\00", align 1

; Function Attrs: mustprogress nounwind uwtable
define linkonce_odr hidden noundef i32 @_ZNK6vectorIN3sat7literalELb0EjE4sizeEv(ptr noundef nonnull align 8 dereferenceable(8) %0) #6 comdat align 2 {
  %2 = alloca i32, align 4
  %3 = alloca ptr, align 8
  store ptr %0, ptr %3, align 8, !tbaa !192
  %4 = load ptr, ptr %3, align 8
  %5 = getelementptr inbounds nuw %class.vector.27, ptr %4, i32 0, i32 0
  %6 = load ptr, ptr %5, align 8, !tbaa !194
  %7 = icmp eq ptr %6, null
  br i1 %7, label %8, label %9

8:                                                ; preds = %1
  store i32 0, ptr %2, align 4
  br label %14

9:                                                ; preds = %1
  %10 = getelementptr inbounds nuw %class.vector.27, ptr %4, i32 0, i32 0
  %11 = load ptr, ptr %10, align 8, !tbaa !194
  %12 = getelementptr inbounds i32, ptr %11, i64 -1
  %13 = load i32, ptr %12, align 4, !tbaa !20
  store i32 %13, ptr %2, align 4
  br label %14

14:                                               ; preds = %9, %8
  %15 = load i32, ptr %2, align 4
  ret i32 %15
}

; Function Attrs: mustprogress nounwind uwtable
define linkonce_odr hidden noundef i32 @_ZNK6vectorIN3sat15model_converter5entryELb1EjE4sizeEv(ptr noundef nonnull align 8 dereferenceable(8) %0) #6 comdat align 2 {
  %2 = alloca i32, align 4
  %3 = alloca ptr, align 8
  store ptr %0, ptr %3, align 8, !tbaa !204
  %4 = load ptr, ptr %3, align 8
  %5 = getelementptr inbounds nuw %class.vector, ptr %4, i32 0, i32 0
  %6 = load ptr, ptr %5, align 8, !tbaa !206
  %7 = icmp eq ptr %6, null
  br i1 %7, label %8, label %9

8:                                                ; preds = %1
  store i32 0, ptr %2, align 4
  br label %14

9:                                                ; preds = %1
  %10 = getelementptr inbounds nuw %class.vector, ptr %4, i32 0, i32 0
  %11 = load ptr, ptr %10, align 8, !tbaa !206
  %12 = getelementptr inbounds i32, ptr %11, i64 -1
  %13 = load i32, ptr %12, align 4, !tbaa !20
  store i32 %13, ptr %2, align 4
  br label %14

14:                                               ; preds = %9, %8
  %15 = load i32, ptr %2, align 4
  ret i32 %15
}

; Function Attrs: mustprogress nounwind uwtable
define linkonce_odr hidden noundef i32 @_ZNK3sat7literal3varEv(ptr noundef nonnull align 4 dereferenceable(4) %0) #6 comdat align 2 {
  %2 = alloca ptr, align 8
  store ptr %0, ptr %2, align 8, !tbaa !195
  %3 = load ptr, ptr %2, align 8
  %4 = getelementptr inbounds nuw %"class.sat::literal", ptr %3, i32 0, i32 0
  %5 = load i32, ptr %4, align 4, !tbaa !196
  %6 = lshr i32 %5, 1
  ret i32 %6
}

; Function Attrs: inlinehint mustprogress nounwind uwtable
define linkonce_odr hidden noundef zeroext i1 @_ZN3sateqERKNS_7literalES2_(ptr noundef nonnull align 4 dereferenceable(4) %0, ptr noundef nonnull align 4 dereferenceable(4) %1) #9 comdat {
  %3 = alloca ptr, align 8
  %4 = alloca ptr, align 8
  store ptr %0, ptr %3, align 8, !tbaa !195
  store ptr %1, ptr %4, align 8, !tbaa !195
  %5 = load ptr, ptr %3, align 8, !tbaa !195
  %6 = getelementptr inbounds nuw %"class.sat::literal", ptr %5, i32 0, i32 0
  %7 = load i32, ptr %6, align 4, !tbaa !196
  %8 = load ptr, ptr %4, align 8, !tbaa !195
  %9 = getelementptr inbounds nuw %"class.sat::literal", ptr %8, i32 0, i32 0
  %10 = load i32, ptr %9, align 4, !tbaa !196
  %11 = icmp eq i32 %7, %10
  ret i1 %11
}

; Function Attrs: mustprogress nounwind uwtable
define linkonce_odr hidden noundef ptr @_ZNK6vectorIN3sat7literalELb0EjE3endEv(ptr noundef nonnull align 8 dereferenceable(8) %0) #6 comdat align 2 {
  %2 = alloca ptr, align 8
  store ptr %0, ptr %2, align 8, !tbaa !192
  %3 = load ptr, ptr %2, align 8
  %4 = getelementptr inbounds nuw %class.vector.27, ptr %3, i32 0, i32 0
  %5 = load ptr, ptr %4, align 8, !tbaa !194
  %6 = call noundef i32 @_ZNK6vectorIN3sat7literalELb0EjE4sizeEv(ptr noundef nonnull align 8 dereferenceable(8) %3)
  %7 = zext i32 %6 to i64
  %8 = getelementptr inbounds nuw %"class.sat::literal", ptr %5, i64 %7
  ret ptr %8
}

; Function Attrs: mustprogress nounwind uwtable
define linkonce_odr hidden noundef ptr @_ZNK6vectorIN3sat7literalELb0EjE5beginEv(ptr noundef nonnull align 8 dereferenceable(8) %0) #6 comdat align 2 {
  %2 = alloca ptr, align 8
  store ptr %0, ptr %2, align 8, !tbaa !192
  %3 = load ptr, ptr %2, align 8
  %4 = getelementptr inbounds nuw %class.vector.27, ptr %3, i32 0, i32 0
  %5 = load ptr, ptr %4, align 8, !tbaa !194
  ret ptr %5
}

; Function Attrs: mustprogress nounwind uwtable
define linkonce_odr hidden noundef i32 @_ZNK3sat15model_converter5entry3varEv(ptr noundef nonnull align 8 dereferenceable(32) %0) #6 comdat align 2 {
  %2 = alloca ptr, align 8
  store ptr %0, ptr %2, align 8, !tbaa !200
  %3 = load ptr, ptr %2, align 8
  %4 = getelementptr inbounds nuw %"class.sat::model_converter::entry", ptr %3, i32 0, i32 0
  %5 = load i32, ptr %4, align 8, !tbaa !207
  ret i32 %5
}

; Function Attrs: mustprogress nounwind uwtable
define linkonce_odr hidden noundef i32 @_ZNK3sat15model_converter5entry8get_kindEv(ptr noundef nonnull align 8 dereferenceable(32) %0) #6 comdat align 2 {
  %2 = alloca ptr, align 8
  store ptr %0, ptr %2, align 8, !tbaa !200
  %3 = load ptr, ptr %2, align 8
  %4 = getelementptr inbounds nuw %"class.sat::model_converter::entry", ptr %3, i32 0, i32 1
  %5 = load i32, ptr %4, align 4, !tbaa !214
  ret i32 %5
}

; Function Attrs: mustprogress nounwind uwtable
define linkonce_odr hidden noundef ptr @_ZNK6vectorIN3sat15model_converter5entryELb1EjE3endEv(ptr noundef nonnull align 8 dereferenceable(8) %0) #6 comdat align 2 {
  %2 = alloca ptr, align 8
  store ptr %0, ptr %2, align 8, !tbaa !204
  %3 = load ptr, ptr %2, align 8
  %4 = getelementptr inbounds nuw %class.vector, ptr %3, i32 0, i32 0
  %5 = load ptr, ptr %4, align 8, !tbaa !206
  %6 = call noundef i32 @_ZNK6vectorIN3sat15model_converter5entryELb1EjE4sizeEv(ptr noundef nonnull align 8 dereferenceable(8) %3)
  %7 = zext i32 %6 to i64
  %8 = getelementptr inbounds nuw %"class.sat::model_converter::entry", ptr %5, i64 %7
  ret ptr %8
}

; Function Attrs: mustprogress nounwind uwtable
define linkonce_odr hidden noundef ptr @_ZNK6vectorIN3sat15model_converter5entryELb1EjE5beginEv(ptr noundef nonnull align 8 dereferenceable(8) %0) #6 comdat align 2 {
  %2 = alloca ptr, align 8
  store ptr %0, ptr %2, align 8, !tbaa !204
  %3 = load ptr, ptr %2, align 8
  %4 = getelementptr inbounds nuw %class.vector, ptr %3, i32 0, i32 0
  %5 = load ptr, ptr %4, align 8, !tbaa !206
  ret ptr %5
}

; Function Attrs: mustprogress uwtable
define hidden noundef zeroext i1 @_ZNK3sat15model_converter15check_invariantEj(ptr noundef nonnull align 8 dereferenceable(40) %0, i32 noundef %1) #4 align 2 {
  %3 = alloca i1, align 1
  %4 = alloca ptr, align 8
  %5 = alloca i32, align 4
  %6 = alloca ptr, align 8
  %7 = alloca ptr, align 8
  %8 = alloca ptr, align 8
  %9 = alloca i32, align 4
  %10 = alloca ptr, align 8
  %11 = alloca ptr, align 8
  %12 = alloca ptr, align 8
  %13 = alloca %"class.sat::literal", align 4
  store ptr %0, ptr %4, align 8, !tbaa !3
  store i32 %1, ptr %5, align 4, !tbaa !20
  %14 = load ptr, ptr %4, align 8
  call void @llvm.lifetime.start.p0(i64 8, ptr %6) #3
  %15 = getelementptr inbounds nuw %"class.sat::model_converter", ptr %14, i32 0, i32 0
  %16 = call noundef ptr @_ZNK6vectorIN3sat15model_converter5entryELb1EjE5beginEv(ptr noundef nonnull align 8 dereferenceable(8) %15)
  store ptr %16, ptr %6, align 8, !tbaa !200
  call void @llvm.lifetime.start.p0(i64 8, ptr %7) #3
  %17 = getelementptr inbounds nuw %"class.sat::model_converter", ptr %14, i32 0, i32 0
  %18 = call noundef ptr @_ZNK6vectorIN3sat15model_converter5entryELb1EjE3endEv(ptr noundef nonnull align 8 dereferenceable(8) %17)
  store ptr %18, ptr %7, align 8, !tbaa !200
  br label %19

19:                                               ; preds = %87, %2
  %20 = load ptr, ptr %6, align 8, !tbaa !200
  %21 = load ptr, ptr %7, align 8, !tbaa !200
  %22 = icmp ne ptr %20, %21
  br i1 %22, label %23, label %90

23:                                               ; preds = %19
  %24 = load ptr, ptr %6, align 8, !tbaa !200
  %25 = call noundef i32 @_ZNK3sat15model_converter5entry8get_kindEv(ptr noundef nonnull align 8 dereferenceable(32) %24)
  %26 = icmp eq i32 %25, 0
  br i1 %26, label %27, label %86

27:                                               ; preds = %23
  call void @llvm.lifetime.start.p0(i64 8, ptr %8) #3
  %28 = load ptr, ptr %6, align 8, !tbaa !200
  store ptr %28, ptr %8, align 8, !tbaa !200
  %29 = load ptr, ptr %8, align 8, !tbaa !200
  %30 = getelementptr inbounds nuw %"class.sat::model_converter::entry", ptr %29, i32 1
  store ptr %30, ptr %8, align 8, !tbaa !200
  br label %31

31:                                               ; preds = %79, %27
  %32 = load ptr, ptr %8, align 8, !tbaa !200
  %33 = load ptr, ptr %7, align 8, !tbaa !200
  %34 = icmp ne ptr %32, %33
  br i1 %34, label %35, label %82

35:                                               ; preds = %31
  %36 = load ptr, ptr %8, align 8, !tbaa !200
  %37 = call noundef i32 @_ZNK3sat15model_converter5entry3varEv(ptr noundef nonnull align 8 dereferenceable(32) %36)
  %38 = load ptr, ptr %6, align 8, !tbaa !200
  %39 = call noundef i32 @_ZNK3sat15model_converter5entry3varEv(ptr noundef nonnull align 8 dereferenceable(32) %38)
  %40 = icmp eq i32 %37, %39
  br i1 %40, label %41, label %42

41:                                               ; preds = %35
  store i1 false, ptr %3, align 1
  store i32 1, ptr %9, align 4
  br label %83

42:                                               ; preds = %35
  call void @llvm.lifetime.start.p0(i64 8, ptr %10) #3
  %43 = load ptr, ptr %8, align 8, !tbaa !200
  %44 = getelementptr inbounds nuw %"class.sat::model_converter::entry", ptr %43, i32 0, i32 2
  store ptr %44, ptr %10, align 8, !tbaa !178
  call void @llvm.lifetime.start.p0(i64 8, ptr %11) #3
  %45 = load ptr, ptr %10, align 8, !tbaa !178
  %46 = call noundef ptr @_ZNK6vectorIN3sat7literalELb0EjE5beginEv(ptr noundef nonnull align 8 dereferenceable(8) %45)
  store ptr %46, ptr %11, align 8, !tbaa !195
  call void @llvm.lifetime.start.p0(i64 8, ptr %12) #3
  %47 = load ptr, ptr %10, align 8, !tbaa !178
  %48 = call noundef ptr @_ZNK6vectorIN3sat7literalELb0EjE3endEv(ptr noundef nonnull align 8 dereferenceable(8) %47)
  store ptr %48, ptr %12, align 8, !tbaa !195
  br label %49

49:                                               ; preds = %73, %42
  %50 = load ptr, ptr %11, align 8, !tbaa !195
  %51 = load ptr, ptr %12, align 8, !tbaa !195
  %52 = icmp ne ptr %50, %51
  br i1 %52, label %54, label %53

53:                                               ; preds = %49
  store i32 8, ptr %9, align 4
  br label %76

54:                                               ; preds = %49
  call void @llvm.lifetime.start.p0(i64 4, ptr %13) #3
  %55 = load ptr, ptr %11, align 8, !tbaa !195
  call void @llvm.memcpy.p0.p0.i64(ptr align 4 %13, ptr align 4 %55, i64 4, i1 false), !tbaa.struct !183
  %56 = call noundef zeroext i1 @_ZN3sateqERKNS_7literalES2_(ptr noundef nonnull align 4 dereferenceable(4) %13, ptr noundef nonnull align 4 dereferenceable(4) @_ZN3sat12null_literalE)
  br i1 %56, label %62, label %57

57:                                               ; preds = %54
  %58 = call noundef i32 @_ZNK3sat7literal3varEv(ptr noundef nonnull align 4 dereferenceable(4) %13)
  %59 = load i32, ptr %5, align 4, !tbaa !20
  %60 = icmp ult i32 %58, %59
  br i1 %60, label %62, label %61

61:                                               ; preds = %57
  call void @_Z26notify_assertion_violationPKciS0_(ptr noundef @.str.2, i32 noundef 279, ptr noundef @.str.15)
  call void @_Z18invoke_exit_actionj(i32 noundef 114)
  br label %62

62:                                               ; preds = %61, %57, %54
  %63 = load ptr, ptr %8, align 8, !tbaa !200
  %64 = call noundef i32 @_ZNK3sat15model_converter5entry3varEv(ptr noundef nonnull align 8 dereferenceable(32) %63)
  %65 = load ptr, ptr %6, align 8, !tbaa !200
  %66 = call noundef i32 @_ZNK3sat15model_converter5entry3varEv(ptr noundef nonnull align 8 dereferenceable(32) %65)
  %67 = icmp eq i32 %64, %66
  br i1 %67, label %68, label %69

68:                                               ; preds = %62
  store i1 false, ptr %3, align 1
  store i32 1, ptr %9, align 4
  br label %70

69:                                               ; preds = %62
  store i32 0, ptr %9, align 4
  br label %70

70:                                               ; preds = %69, %68
  call void @llvm.lifetime.end.p0(i64 4, ptr %13) #3
  %71 = load i32, ptr %9, align 4
  switch i32 %71, label %76 [
    i32 0, label %72
  ]

72:                                               ; preds = %70
  br label %73

73:                                               ; preds = %72
  %74 = load ptr, ptr %11, align 8, !tbaa !195
  %75 = getelementptr inbounds nuw %"class.sat::literal", ptr %74, i32 1
  store ptr %75, ptr %11, align 8, !tbaa !195
  br label %49

76:                                               ; preds = %70, %53
  call void @llvm.lifetime.end.p0(i64 8, ptr %12) #3
  call void @llvm.lifetime.end.p0(i64 8, ptr %11) #3
  call void @llvm.lifetime.end.p0(i64 8, ptr %10) #3
  %77 = load i32, ptr %9, align 4
  switch i32 %77, label %83 [
    i32 8, label %78
  ]

78:                                               ; preds = %76
  br label %79

79:                                               ; preds = %78
  %80 = load ptr, ptr %8, align 8, !tbaa !200
  %81 = getelementptr inbounds nuw %"class.sat::model_converter::entry", ptr %80, i32 1
  store ptr %81, ptr %8, align 8, !tbaa !200
  br label %31, !llvm.loop !231

82:                                               ; preds = %31
  store i32 0, ptr %9, align 4
  br label %83

83:                                               ; preds = %82, %76, %41
  call void @llvm.lifetime.end.p0(i64 8, ptr %8) #3
  %84 = load i32, ptr %9, align 4
  switch i32 %84, label %91 [
    i32 0, label %85
  ]

85:                                               ; preds = %83
  br label %86

86:                                               ; preds = %85, %23
  br label %87

87:                                               ; preds = %86
  %88 = load ptr, ptr %6, align 8, !tbaa !200
  %89 = getelementptr inbounds nuw %"class.sat::model_converter::entry", ptr %88, i32 1
  store ptr %89, ptr %6, align 8, !tbaa !200
  br label %19, !llvm.loop !232

90:                                               ; preds = %19
  store i1 true, ptr %3, align 1
  store i32 1, ptr %9, align 4
  br label %91

91:                                               ; preds = %90, %83
  call void @llvm.lifetime.end.p0(i64 8, ptr %7) #3
  call void @llvm.lifetime.end.p0(i64 8, ptr %6) #3
  %92 = load i1, ptr %3, align 1
  ret i1 %92
}