; Function Attrs: mustprogress uwtable
define hidden noundef zeroext i1 @_ZNK3sat15model_converter15check_invariantEj(ptr noundef nonnull readonly align 8 captures(none) dereferenceable(40) %0, i32 noundef %1) local_unnamed_addr #3 align 2 {
  %3 = load ptr, ptr %0, align 8, !tbaa !3
  %4 = icmp eq ptr %3, null
  br i1 %4, label %.loopexit, label %_ZNK6vectorIN3sat15model_converter5entryELb1EjE3endEv.exit

_ZNK6vectorIN3sat15model_converter5entryELb1EjE3endEv.exit: ; preds = %2
  %5 = getelementptr inbounds i8, ptr %3, i64 -4
  %6 = load i32, ptr %5, align 4, !tbaa !9
  %7 = zext i32 %6 to i64
  %8 = getelementptr inbounds nuw %"class.sat::model_converter::entry", ptr %3, i64 %7
  %.not54 = icmp eq i32 %6, 0
  br i1 %.not54, label %.loopexit, label %.lr.ph58

.lr.ph58:                                         ; preds = %_ZNK6vectorIN3sat15model_converter5entryELb1EjE3endEv.exit, %.critedge38
  %.02855 = phi ptr [ %.03249, %.critedge38 ], [ %3, %_ZNK6vectorIN3sat15model_converter5entryELb1EjE3endEv.exit ]
  %9 = getelementptr inbounds nuw i8, ptr %.02855, i64 4
  %10 = load i32, ptr %9, align 4, !tbaa !196
  %11 = icmp ne i32 %10, 0
  %.03249 = getelementptr inbounds nuw i8, ptr %.02855, i64 32
  %.not3450 = icmp eq ptr %.03249, %8
  %or.cond59 = select i1 %11, i1 true, i1 %.not3450
  br i1 %or.cond59, label %.critedge38, label %.lr.ph53.preheader

.lr.ph53.preheader:                               ; preds = %.lr.ph58
  %.pre = load i32, ptr %.02855, align 8, !tbaa !189
  br label %.lr.ph53

.critedge.loopexit:                               ; preds = %26, %18, %_ZNK6vectorIN3sat7literalELb0EjE3endEv.exit
  %12 = phi i32 [ %14, %_ZNK6vectorIN3sat7literalELb0EjE3endEv.exit ], [ %14, %18 ], [ %36, %26 ]
  %13 = phi i32 [ %15, %_ZNK6vectorIN3sat7literalELb0EjE3endEv.exit ], [ %15, %18 ], [ %36, %26 ]
  %.032 = getelementptr inbounds nuw i8, ptr %.03252, i64 32
  %.not34 = icmp eq ptr %.032, %8
  br i1 %.not34, label %.critedge38, label %.lr.ph53, !llvm.loop !213

.lr.ph53:                                         ; preds = %.lr.ph53.preheader, %.critedge.loopexit
  %14 = phi i32 [ %12, %.critedge.loopexit ], [ %.pre, %.lr.ph53.preheader ]
  %15 = phi i32 [ %13, %.critedge.loopexit ], [ %.pre, %.lr.ph53.preheader ]
  %.03252 = phi ptr [ %.032, %.critedge.loopexit ], [ %.03249, %.lr.ph53.preheader ]
  %.028.pn51 = phi ptr [ %.03252, %.critedge.loopexit ], [ %.02855, %.lr.ph53.preheader ]
  %16 = load i32, ptr %.03252, align 8, !tbaa !189
  %17 = icmp eq i32 %16, %15
  br i1 %17, label %.loopexit, label %18

18:                                               ; preds = %.lr.ph53
  %19 = getelementptr inbounds nuw i8, ptr %.028.pn51, i64 40
  %20 = load ptr, ptr %19, align 8, !tbaa !11
  %21 = icmp eq ptr %20, null
  br i1 %21, label %.critedge.loopexit, label %_ZNK6vectorIN3sat7literalELb0EjE3endEv.exit

_ZNK6vectorIN3sat7literalELb0EjE3endEv.exit:      ; preds = %18
  %22 = getelementptr inbounds i8, ptr %20, i64 -4
  %23 = load i32, ptr %22, align 4, !tbaa !9
  %24 = zext i32 %23 to i64
  %25 = getelementptr inbounds nuw %"class.sat::literal", ptr %20, i64 %24
  %.not3547 = icmp eq i32 %23, 0
  br i1 %.not3547, label %.critedge.loopexit, label %.lr.ph

26:                                               ; preds = %35
  %27 = getelementptr inbounds nuw i8, ptr %.02748, i64 4
  %.not35 = icmp eq ptr %27, %25
  br i1 %.not35, label %.critedge.loopexit, label %.lr.ph

.lr.ph:                                           ; preds = %_ZNK6vectorIN3sat7literalELb0EjE3endEv.exit, %26
  %28 = phi i32 [ %36, %26 ], [ %14, %_ZNK6vectorIN3sat7literalELb0EjE3endEv.exit ]
  %29 = phi i32 [ %37, %26 ], [ %16, %_ZNK6vectorIN3sat7literalELb0EjE3endEv.exit ]
  %.02748 = phi ptr [ %27, %26 ], [ %20, %_ZNK6vectorIN3sat7literalELb0EjE3endEv.exit ]
  %30 = load i32, ptr %.02748, align 4, !tbaa !9
  %31 = icmp eq i32 %30, -2
  %32 = lshr i32 %30, 1
  %33 = icmp ult i32 %32, %1
  %or.cond = or i1 %31, %33
  br i1 %or.cond, label %35, label %34

34:                                               ; preds = %.lr.ph
  tail call void @_Z26notify_assertion_violationPKciS0_(ptr noundef nonnull @.str.2, i32 noundef 279, ptr noundef nonnull @.str.15)
  tail call void @_Z18invoke_exit_actionj(i32 noundef 114)
  %.pre62 = load i32, ptr %.03252, align 8, !tbaa !189
  %.pre63 = load i32, ptr %.02855, align 8, !tbaa !189
  br label %35

35:                                               ; preds = %34, %.lr.ph
  %36 = phi i32 [ %.pre63, %34 ], [ %28, %.lr.ph ]
  %37 = phi i32 [ %.pre62, %34 ], [ %29, %.lr.ph ]
  %.not36 = icmp eq i32 %37, %36
  br i1 %.not36, label %.loopexit, label %26

.critedge38:                                      ; preds = %.critedge.loopexit, %.lr.ph58
  br i1 %.not3450, label %.loopexit, label %.lr.ph58, !llvm.loop !214

.loopexit:                                        ; preds = %.critedge38, %.lr.ph53, %35, %2, %_ZNK6vectorIN3sat15model_converter5entryELb1EjE3endEv.exit
  %.not46 = phi i1 [ true, %_ZNK6vectorIN3sat15model_converter5entryELb1EjE3endEv.exit ], [ true, %2 ], [ false, %35 ], [ false, %.lr.ph53 ], [ true, %.critedge38 ]
  ret i1 %.not46
}